target datalayout = "e-m:e-p270:32:32-p271:32:32-p272:64:64-i64:64-i128:128-f80:128-n8:16:32:64-S128"
target triple = "x86_64-pc-linux-gnu"

%struct.vp56_context = type { ptr, %struct.H264ChromaContext, %struct.HpelDSPContext, %struct.VideoDSPContext, %struct.VP3DSPContext, %struct.VP56DSPContext, [64 x i8], [4 x ptr], ptr, ptr, %struct.VPXRangeCoder, %struct.VPXRangeCoder, ptr, i32, i32, [4 x i32], [4 x i32], i32, i32, [6 x i32], i32, i16, i16, ptr, [4 x %struct.VP56RefDc], [6 x i32], [3 x [3 x i16]], i32, ptr, [8 x i8], [6 x [64 x i16]], [6 x i32], ptr, [6 x %struct.VP56mv], [2 x %struct.VP56mv], i32, i32, i32, i32, i32, i32, i32, [4 x i8], [256 x i32], [4 x [64 x i8]], [4 x i8], i32, i32, i32, i32, i32, i32, i32, [4 x i64], ptr, ptr, ptr, ptr, ptr, ptr, ptr, ptr, ptr, ptr, %struct.VP56Model, i32, %struct.GetBitContext, [2 x %struct.VLC], [2 x %struct.VLC], [2 x [3 x [4 x %struct.VLC]]], [2 x [2 x i32]], i32, i32 }
%struct.H264ChromaContext = type { [4 x ptr], [4 x ptr] }
%struct.HpelDSPContext = type { [4 x [4 x ptr]], [4 x [4 x ptr]], [4 x [4 x ptr]], [4 x ptr] }
%struct.VideoDSPContext = type { ptr, ptr }
%struct.VP3DSPContext = type { ptr, ptr, ptr, ptr, ptr, ptr, ptr, ptr }
%struct.VP56DSPContext = type { ptr, ptr, ptr }
%struct.VPXRangeCoder = type { i32, i32, ptr, ptr, i32, i32 }
%struct.VP56RefDc = type { i8, i32, i16 }
%struct.VP56mv = type { i16, i16 }
%struct.VP56Model = type { [64 x i8], [64 x i8], [64 x i8], [2 x i8], [2 x i8], [2 x [2 x i8]], [2 x [7 x i8]], [2 x [8 x i8]], [2 x [11 x i8]], [2 x [3 x [6 x [11 x i8]]]], [2 x [3 x [3 x [6 x [5 x i8]]]]], [2 x [36 x [5 x i8]]], [2 x [14 x i8]], [3 x [10 x [10 x i8]]], [3 x [10 x [2 x i8]]] }
%struct.GetBitContext = type { ptr, ptr, i32, i32, i32 }
%struct.VLC = type { i32, ptr, i32, i32 }
%struct.AVRational = type { i32, i32 }
%struct.AVCodecContext = type { ptr, i32, i32, ptr, i32, i32, ptr, ptr, ptr, i64, i32, i32, ptr, i32, %struct.AVRational, %struct.AVRational, %struct.AVRational, i32, i32, i32, i32, i32, %struct.AVRational, i32, i32, i32, i32, i32, i32, i32, i32, i32, i32, i32, ptr, ptr, i32, float, float, float, float, float, float, float, float, float, i32, i32, i32, i32, i32, i32, i32, i32, i32, i32, i32, i32, ptr, ptr, ptr, i32, i32, i32, i32, i32, i32, i32, i32, i32, i32, %struct.AVChannelLayout, i32, i32, i32, i32, i32, i32, i32, i32, ptr, i32, i32, i32, float, float, i32, i32, i32, i32, i32, ptr, i64, i64, float, float, i32, i32, ptr, ptr, i32, i32, i32, i32, i32, ptr, ptr, ptr, ptr, i32, i32, [8 x i64], i32, i32, i32, i32, i32, i32, i32, ptr, ptr, i32, i32, i32, i32, i32, i32, i32, i32, i32, i32, ptr, ptr, i32, i32, ptr, ptr, ptr, ptr, i32, i32, i64, i32, i32, i64, ptr, i64, ptr, i32, ptr, i32 }
%struct.AVChannelLayout = type { i32, i32, %union.anon, ptr }
%union.anon = type { i64 }

@ff_zigzag_direct = external constant [64 x i8], align 16

; Function Attrs: cold nounwind optsize uwtable
define i32 @ff_vp56_init_context(ptr noundef %0, ptr noundef %1, i32 noundef %2, i32 noundef %3) #4 {
  %5 = alloca i32, align 4
  %6 = alloca ptr, align 8
  %7 = alloca ptr, align 8
  %8 = alloca i32, align 4
  %9 = alloca i32, align 4
  %10 = alloca i32, align 4
  %11 = alloca i32, align 4
  store ptr %0, ptr %6, align 8, !tbaa !31
  store ptr %1, ptr %7, align 8, !tbaa !4
  store i32 %2, ptr %8, align 4, !tbaa !9
  store i32 %3, ptr %9, align 4, !tbaa !9
  call void @llvm.lifetime.start.p0(i64 4, ptr %10) #8
  %12 = load ptr, ptr %6, align 8, !tbaa !31
  %13 = load ptr, ptr %7, align 8, !tbaa !4
  %14 = getelementptr inbounds nuw %struct.vp56_context, ptr %13, i32 0, i32 0
  store ptr %12, ptr %14, align 16, !tbaa !77
  %15 = load i32, ptr %9, align 4, !tbaa !9
  %16 = icmp ne i32 %15, 0
  %17 = select i1 %16, i32 33, i32 0
  %18 = load ptr, ptr %6, align 8, !tbaa !31
  %19 = getelementptr inbounds nuw %struct.AVCodecContext, ptr %18, i32 0, i32 23
  store i32 %17, ptr %19, align 8, !tbaa !69
  %20 = load ptr, ptr %6, align 8, !tbaa !31
  %21 = getelementptr inbounds nuw %struct.AVCodecContext, ptr %20, i32 0, i32 127
  %22 = load i32, ptr %21, align 8, !tbaa !115
  %23 = icmp ne i32 %22, 0
  br i1 %23, label %24, label %27

24:                                               ; preds = %4
  %25 = load ptr, ptr %6, align 8, !tbaa !31
  %26 = getelementptr inbounds nuw %struct.AVCodecContext, ptr %25, i32 0, i32 23
  store i32 0, ptr %26, align 8, !tbaa !69
  br label %27

27:                                               ; preds = %24, %4
  %28 = load ptr, ptr %7, align 8, !tbaa !4
  %29 = getelementptr inbounds nuw %struct.vp56_context, ptr %28, i32 0, i32 1
  call void @ff_h264chroma_init(ptr noundef %29, i32 noundef 8)
  %30 = load ptr, ptr %7, align 8, !tbaa !4
  %31 = getelementptr inbounds nuw %struct.vp56_context, ptr %30, i32 0, i32 2
  %32 = load ptr, ptr %6, align 8, !tbaa !31
  %33 = getelementptr inbounds nuw %struct.AVCodecContext, ptr %32, i32 0, i32 10
  %34 = load i32, ptr %33, align 8, !tbaa !116
  call void @ff_hpeldsp_init(ptr noundef %31, i32 noundef %34)
  %35 = load ptr, ptr %7, align 8, !tbaa !4
  %36 = getelementptr inbounds nuw %struct.vp56_context, ptr %35, i32 0, i32 3
  call void @ff_videodsp_init(ptr noundef %36, i32 noundef 8)
  %37 = load ptr, ptr %7, align 8, !tbaa !4
  %38 = getelementptr inbounds nuw %struct.vp56_context, ptr %37, i32 0, i32 4
  %39 = load ptr, ptr %6, align 8, !tbaa !31
  %40 = getelementptr inbounds nuw %struct.AVCodecContext, ptr %39, i32 0, i32 10
  %41 = load i32, ptr %40, align 8, !tbaa !116
  call void @ff_vp3dsp_init(ptr noundef %38, i32 noundef %41)
  store i32 0, ptr %10, align 4, !tbaa !9
  br label %42

42:                                               ; preds = %66, %27
  %43 = load i32, ptr %10, align 4, !tbaa !9
  %44 = icmp slt i32 %43, 64
  br i1 %44, label %45, label %69

45:                                               ; preds = %42
  %46 = load i32, ptr %10, align 4, !tbaa !9
  %47 = sext i32 %46 to i64
  %48 = getelementptr inbounds [64 x i8], ptr @ff_zigzag_direct, i64 0, i64 %47
  %49 = load i8, ptr %48, align 1, !tbaa !28
  %50 = zext i8 %49 to i32
  %51 = ashr i32 %50, 3
  %52 = load i32, ptr %10, align 4, !tbaa !9
  %53 = sext i32 %52 to i64
  %54 = getelementptr inbounds [64 x i8], ptr @ff_zigzag_direct, i64 0, i64 %53
  %55 = load i8, ptr %54, align 1, !tbaa !28
  %56 = zext i8 %55 to i32
  %57 = and i32 %56, 7
  %58 = shl i32 %57, 3
  %59 = or i32 %51, %58
  %60 = trunc i32 %59 to i8
  %61 = load ptr, ptr %7, align 8, !tbaa !4
  %62 = getelementptr inbounds nuw %struct.vp56_context, ptr %61, i32 0, i32 6
  %63 = load i32, ptr %10, align 4, !tbaa !9
  %64 = sext i32 %63 to i64
  %65 = getelementptr inbounds [64 x i8], ptr %62, i64 0, i64 %64
  store i8 %60, ptr %65, align 1, !tbaa !28
  br label %66

66:                                               ; preds = %45
  %67 = load i32, ptr %10, align 4, !tbaa !9
  %68 = add nsw i32 %67, 1
  store i32 %68, ptr %10, align 4, !tbaa !9
  br label %42, !llvm.loop !117

69:                                               ; preds = %42
  store i32 0, ptr %10, align 4, !tbaa !9
  br label %70

70:                                               ; preds = %90, %69
  %71 = load i32, ptr %10, align 4, !tbaa !9
  %72 = sext i32 %71 to i64
  %73 = icmp ult i64 %72, 4
  br i1 %73, label %74, label %93

74:                                               ; preds = %70
  %75 = call ptr @av_frame_alloc()
  %76 = load ptr, ptr %7, align 8, !tbaa !4
  %77 = getelementptr inbounds nuw %struct.vp56_context, ptr %76, i32 0, i32 7
  %78 = load i32, ptr %10, align 4, !tbaa !9
  %79 = sext i32 %78 to i64
  %80 = getelementptr inbounds [4 x ptr], ptr %77, i64 0, i64 %79
  store ptr %75, ptr %80, align 8, !tbaa !32
  %81 = load ptr, ptr %7, align 8, !tbaa !4
  %82 = getelementptr inbounds nuw %struct.vp56_context, ptr %81, i32 0, i32 7
  %83 = load i32, ptr %10, align 4, !tbaa !9
  %84 = sext i32 %83 to i64
  %85 = getelementptr inbounds [4 x ptr], ptr %82, i64 0, i64 %84
  %86 = load ptr, ptr %85, align 8, !tbaa !32
  %87 = icmp ne ptr %86, null
  br i1 %87, label %89, label %88

88:                                               ; preds = %74
  store i32 -12, ptr %5, align 4
  store i32 1, ptr %11, align 4
  br label %132

89:                                               ; preds = %74
  br label %90

90:                                               ; preds = %89
  %91 = load i32, ptr %10, align 4, !tbaa !9
  %92 = add nsw i32 %91, 1
  store i32 %92, ptr %10, align 4, !tbaa !9
  br label %70, !llvm.loop !118

93:                                               ; preds = %70
  %94 = load ptr, ptr %7, align 8, !tbaa !4
  %95 = getelementptr inbounds nuw %struct.vp56_context, ptr %94, i32 0, i32 8
  store ptr null, ptr %95, align 16, !tbaa !84
  %96 = load ptr, ptr %7, align 8, !tbaa !4
  %97 = getelementptr inbounds nuw %struct.vp56_context, ptr %96, i32 0, i32 23
  store ptr null, ptr %97, align 8, !tbaa !86
  %98 = load ptr, ptr %7, align 8, !tbaa !4
  %99 = getelementptr inbounds nuw %struct.vp56_context, ptr %98, i32 0, i32 28
  store ptr null, ptr %99, align 16, !tbaa !87
  %100 = load ptr, ptr %7, align 8, !tbaa !4
  %101 = getelementptr inbounds nuw %struct.vp56_context, ptr %100, i32 0, i32 20
  store i32 -1, ptr %101, align 16, !tbaa !11
  %102 = load ptr, ptr %7, align 8, !tbaa !4
  %103 = getelementptr inbounds nuw %struct.vp56_context, ptr %102, i32 0, i32 37
  store i32 1, ptr %103, align 8, !tbaa !119
  %104 = load ptr, ptr %7, align 8, !tbaa !4
  %105 = getelementptr inbounds nuw %struct.vp56_context, ptr %104, i32 0, i32 14
  store i32 0, ptr %105, align 4, !tbaa !114
  %106 = load ptr, ptr %7, align 8, !tbaa !4
  %107 = getelementptr inbounds nuw %struct.vp56_context, ptr %106, i32 0, i32 56
  store ptr null, ptr %107, align 16, !tbaa !120
  %108 = load i32, ptr %9, align 4, !tbaa !9
  %109 = load ptr, ptr %7, align 8, !tbaa !4
  %110 = getelementptr inbounds nuw %struct.vp56_context, ptr %109, i32 0, i32 46
  store i32 %108, ptr %110, align 4, !tbaa !59
  %111 = load ptr, ptr %7, align 8, !tbaa !4
  %112 = getelementptr inbounds nuw %struct.vp56_context, ptr %111, i32 0, i32 64
  %113 = load ptr, ptr %7, align 8, !tbaa !4
  %114 = getelementptr inbounds nuw %struct.vp56_context, ptr %113, i32 0, i32 63
  store ptr %112, ptr %114, align 8, !tbaa !121
  %115 = load i32, ptr %8, align 4, !tbaa !9
  %116 = icmp ne i32 %115, 0
  br i1 %116, label %117, label %124

117:                                              ; preds = %93
  %118 = load ptr, ptr %7, align 8, !tbaa !4
  %119 = getelementptr inbounds nuw %struct.vp56_context, ptr %118, i32 0, i32 50
  store i32 -1, ptr %119, align 4, !tbaa !79
  %120 = load ptr, ptr %7, align 8, !tbaa !4
  %121 = getelementptr inbounds nuw %struct.vp56_context, ptr %120, i32 0, i32 51
  store i32 2, ptr %121, align 8, !tbaa !107
  %122 = load ptr, ptr %7, align 8, !tbaa !4
  %123 = getelementptr inbounds nuw %struct.vp56_context, ptr %122, i32 0, i32 52
  store i32 0, ptr %123, align 4, !tbaa !108
  br label %131

124:                                              ; preds = %93
  %125 = load ptr, ptr %7, align 8, !tbaa !4
  %126 = getelementptr inbounds nuw %struct.vp56_context, ptr %125, i32 0, i32 50
  store i32 1, ptr %126, align 4, !tbaa !79
  %127 = load ptr, ptr %7, align 8, !tbaa !4
  %128 = getelementptr inbounds nuw %struct.vp56_context, ptr %127, i32 0, i32 51
  store i32 0, ptr %128, align 8, !tbaa !107
  %129 = load ptr, ptr %7, align 8, !tbaa !4
  %130 = getelementptr inbounds nuw %struct.vp56_context, ptr %129, i32 0, i32 52
  store i32 2, ptr %130, align 4, !tbaa !108
  br label %131

131:                                              ; preds = %124, %117
  store i32 0, ptr %5, align 4
  store i32 1, ptr %11, align 4
  br label %132

132:                                              ; preds = %131, %88
  call void @llvm.lifetime.end.p0(i64 4, ptr %10) #8
  %133 = load i32, ptr %5, align 4
  ret i32 %133
}