; Function Attrs: cold nounwind optsize uwtable
define range(i32 -12, 1) i32 @ff_vp56_init_context(ptr noundef %0, ptr noundef initializes((0, 8)) %1, i32 noundef %2, i32 noundef %3) local_unnamed_addr #3 {
  store ptr %0, ptr %1, align 16, !tbaa !63
  %.not = icmp eq i32 %3, 0
  %5 = select i1 %.not, i32 0, i32 33
  %6 = getelementptr inbounds nuw i8, ptr %0, i64 136
  %7 = getelementptr inbounds nuw i8, ptr %0, i64 712
  %8 = load i32, ptr %7, align 8, !tbaa !144
  %.not44 = icmp eq i32 %8, 0
  %spec.store.select = select i1 %.not44, i32 %5, i32 0
  store i32 %spec.store.select, ptr %6, align 8
  %9 = getelementptr inbounds nuw i8, ptr %1, i64 8
  tail call void @ff_h264chroma_init(ptr noundef nonnull %9, i32 noundef 8) #8
  %10 = getelementptr inbounds nuw i8, ptr %1, i64 72
  %11 = getelementptr inbounds nuw i8, ptr %0, i64 64
  %12 = load i32, ptr %11, align 8, !tbaa !145
  tail call void @ff_hpeldsp_init(ptr noundef nonnull %10, i32 noundef %12) #8
  %13 = getelementptr inbounds nuw i8, ptr %1, i64 488
  tail call void @ff_videodsp_init(ptr noundef nonnull %13, i32 noundef 8) #8
  %14 = getelementptr inbounds nuw i8, ptr %1, i64 504
  %15 = load i32, ptr %11, align 8, !tbaa !145
  tail call void @ff_vp3dsp_init(ptr noundef nonnull %14, i32 noundef %15) #8
  %16 = getelementptr inbounds nuw i8, ptr %1, i64 592
  br label %18

.preheader:                                       ; preds = %18
  %17 = getelementptr inbounds nuw i8, ptr %1, i64 656
  br label %27

18:                                               ; preds = %4, %18
  %indvars.iv = phi i64 [ 0, %4 ], [ %indvars.iv.next, %18 ]
  %19 = getelementptr inbounds nuw [64 x i8], ptr @ff_zigzag_direct, i64 0, i64 %indvars.iv
  %20 = load i8, ptr %19, align 1, !tbaa !26
  %21 = lshr i8 %20, 3
  %22 = shl i8 %20, 3
  %23 = and i8 %22, 56
  %24 = or i8 %23, %21
  %25 = getelementptr inbounds nuw [64 x i8], ptr %16, i64 0, i64 %indvars.iv
  store i8 %24, ptr %25, align 1, !tbaa !26
  %indvars.iv.next = add nuw nsw i64 %indvars.iv, 1
  %exitcond.not = icmp eq i64 %indvars.iv.next, 64
  br i1 %exitcond.not, label %.preheader, label %18, !llvm.loop !146

26:                                               ; preds = %27
  %indvars.iv.next51 = add nuw nsw i64 %indvars.iv50, 1
  %exitcond53.not = icmp eq i64 %indvars.iv.next51, 4
  br i1 %exitcond53.not, label %.loopexit.sink.split, label %27, !llvm.loop !147

27:                                               ; preds = %.preheader, %26
  %indvars.iv50 = phi i64 [ 0, %.preheader ], [ %indvars.iv.next51, %26 ]
  %28 = tail call ptr @av_frame_alloc() #8
  %29 = getelementptr inbounds nuw [4 x ptr], ptr %17, i64 0, i64 %indvars.iv50
  store ptr %28, ptr %29, align 8, !tbaa !49
  %.not46 = icmp eq ptr %28, null
  br i1 %.not46, label %.loopexit, label %26

.loopexit.sink.split:                             ; preds = %26
  %30 = getelementptr inbounds nuw i8, ptr %1, i64 688
  store ptr null, ptr %30, align 16, !tbaa !73
  %31 = getelementptr inbounds nuw i8, ptr %1, i64 856
  store ptr null, ptr %31, align 8, !tbaa !75
  %32 = getelementptr inbounds nuw i8, ptr %1, i64 960
  store ptr null, ptr %32, align 16, !tbaa !76
  %33 = getelementptr inbounds nuw i8, ptr %1, i64 848
  store i32 -1, ptr %33, align 16, !tbaa !4
  %34 = getelementptr inbounds nuw i8, ptr %1, i64 1816
  store i32 1, ptr %34, align 8, !tbaa !148
  %35 = getelementptr inbounds nuw i8, ptr %1, i64 780
  store i32 0, ptr %35, align 4, !tbaa !143
  %36 = getelementptr inbounds nuw i8, ptr %1, i64 3200
  store ptr null, ptr %36, align 16, !tbaa !149
  %37 = getelementptr inbounds nuw i8, ptr %1, i64 3124
  store i32 %3, ptr %37, align 4, !tbaa !52
  %38 = getelementptr inbounds nuw i8, ptr %1, i64 3264
  %39 = getelementptr inbounds nuw i8, ptr %1, i64 3256
  store ptr %38, ptr %39, align 8, !tbaa !87
  %.not45 = icmp eq i32 %2, 0
  %40 = getelementptr inbounds nuw i8, ptr %1, i64 3140
  %41 = getelementptr inbounds nuw i8, ptr %1, i64 3144
  %42 = getelementptr inbounds nuw i8, ptr %1, i64 3148
  %. = select i1 %.not45, i32 1, i32 -1
  %.56 = select i1 %.not45, i32 0, i32 2
  %.57 = select i1 %.not45, i32 2, i32 0
  store i32 %., ptr %40, align 4, !tbaa !68
  store i32 %.56, ptr %41, align 8, !tbaa !117
  store i32 %.57, ptr %42, align 4, !tbaa !118
  br label %.loopexit

.loopexit:                                        ; preds = %27, %.loopexit.sink.split
  %.042 = phi i32 [ 0, %.loopexit.sink.split ], [ -12, %27 ]
  ret i32 %.042
}